(lp0
(dp1
Vpath
p2
V/
p3
sVdomain
p4
Vcsrc.edu.tw
p5
sVname
p6
Vcsrc.edu.tw
p7
sVvalue
p8
V3640749964.20480.0000
p9
sVsecure
p10
I00
sa(dp11
Vpath
p12
g3
sVdomain
p13
Vcsrc.edu.tw
p14
sVname
p15
VASP.NET_SessionId
p16
sVvalue
p17
V5f2fkbb5tfryqji0vzne4y2z
p18
sVsecure
p19
I01
sa.